; Function Attrs: null_pointer_is_valid sspstrong uwtable
define internal i32 @dissect_amp(ptr noundef %0, ptr noundef %1, ptr noundef %2, ptr readnone captures(none) %3) #0 {
  %5 = getelementptr inbounds nuw i8, ptr %1, i64 8
  %6 = load ptr, ptr %5, align 8
  tail call void @col_set_str(ptr noundef %6, i32 noundef 35, ptr noundef nonnull @.str.68)
  %7 = load ptr, ptr %5, align 8
  tail call void @col_clear(ptr noundef %7, i32 noundef 25)
  %8 = tail call i32 @tvb_reported_length_remaining(ptr noundef %0, i32 noundef 0)
  %9 = load i32, ptr @proto_amp, align 4
  %10 = tail call ptr @proto_tree_add_item(ptr noundef %2, i32 noundef %9, ptr noundef %0, i32 noundef 0, i32 noundef %8, i32 noundef 0)
  %11 = load i32, ptr @ett_amp, align 4
  %12 = tail call ptr @proto_item_add_subtree(ptr noundef %10, i32 noundef %11)
  tail call void @dissect_amp_as_subtree(ptr noundef %0, ptr noundef %1, ptr noundef %12, i32 noundef 0)
  %13 = tail call i32 @tvb_captured_length(ptr noundef %0)
  ret i32 %13
}